; Function Attrs: mustprogress nounwind uwtable
define internal fastcc void @"_ZSt21__inplace_stable_sortIPPN4llvm17DbgVariableRecordEN9__gnu_cxx5__ops15_Iter_comp_iterIZNS0_16InstCombinerImpl38tryToSinkInstructionDbgVariableRecordsEPNS0_11InstructionENS0_21ilist_iterator_w_bitsINS0_12ilist_detail12node_optionsIS8_Lb0ELb0EvLb1ENS0_10BasicBlockEEELb0ELb0EEEPSD_SG_RNS0_15SmallVectorImplIS2_EEE3$_0EEEvT_SM_T0_"(ptr noundef %0, ptr noundef %1) unnamed_addr #0 {
  %3 = ptrtoint ptr %1 to i64
  %4 = ptrtoint ptr %0 to i64
  %5 = sub i64 %3, %4
  %6 = ashr exact i64 %5, 3
  %7 = icmp slt i64 %6, 15
  br i1 %7, label %common.ret, label %8

common.ret:                                       ; preds = %2
  tail call fastcc void @"_ZSt16__insertion_sortIPPN4llvm17DbgVariableRecordEN9__gnu_cxx5__ops15_Iter_comp_iterIZNS0_16InstCombinerImpl38tryToSinkInstructionDbgVariableRecordsEPNS0_11InstructionENS0_21ilist_iterator_w_bitsINS0_12ilist_detail12node_optionsIS8_Lb0ELb0EvLb1ENS0_10BasicBlockEEELb0ELb0EEEPSD_SG_RNS0_15SmallVectorImplIS2_EEE3$_0EEEvT_SM_T0_"(ptr noundef %0, ptr noundef %1)
  br label %common.ret25

common.ret25:                                     ; preds = %8, %common.ret
  ret void

8:                                                ; preds = %2
  %9 = lshr i64 %6, 1
  %10 = getelementptr inbounds nuw ptr, ptr %0, i64 %9
  tail call fastcc void @"_ZSt21__inplace_stable_sortIPPN4llvm17DbgVariableRecordEN9__gnu_cxx5__ops15_Iter_comp_iterIZNS0_16InstCombinerImpl38tryToSinkInstructionDbgVariableRecordsEPNS0_11InstructionENS0_21ilist_iterator_w_bitsINS0_12ilist_detail12node_optionsIS8_Lb0ELb0EvLb1ENS0_10BasicBlockEEELb0ELb0EEEPSD_SG_RNS0_15SmallVectorImplIS2_EEE3$_0EEEvT_SM_T0_"(ptr noundef %0, ptr noundef %10)
  tail call fastcc void @"_ZSt21__inplace_stable_sortIPPN4llvm17DbgVariableRecordEN9__gnu_cxx5__ops15_Iter_comp_iterIZNS0_16InstCombinerImpl38tryToSinkInstructionDbgVariableRecordsEPNS0_11InstructionENS0_21ilist_iterator_w_bitsINS0_12ilist_detail12node_optionsIS8_Lb0ELb0EvLb1ENS0_10BasicBlockEEELb0ELb0EEEPSD_SG_RNS0_15SmallVectorImplIS2_EEE3$_0EEEvT_SM_T0_"(ptr noundef %10, ptr noundef %1)
  %11 = ptrtoint ptr %10 to i64
  %12 = sub i64 %3, %11
  %13 = ashr exact i64 %12, 3
  tail call fastcc void @"_ZSt22__merge_without_bufferIPPN4llvm17DbgVariableRecordElN9__gnu_cxx5__ops15_Iter_comp_iterIZNS0_16InstCombinerImpl38tryToSinkInstructionDbgVariableRecordsEPNS0_11InstructionENS0_21ilist_iterator_w_bitsINS0_12ilist_detail12node_optionsIS8_Lb0ELb0EvLb1ENS0_10BasicBlockEEELb0ELb0EEEPSD_SG_RNS0_15SmallVectorImplIS2_EEE3$_0EEEvT_SM_SM_T0_SN_T1_"(ptr noundef %0, ptr noundef %10, ptr noundef %1, i64 noundef %9, i64 noundef %13)
  br label %common.ret25
}